target datalayout = "e-m:e-p270:32:32-p271:32:32-p272:64:64-i64:64-i128:128-f80:128-n8:16:32:64-S128"
target triple = "x86_64-pc-linux-gnu"

%"struct.pxrInternal_v0_24__pxrReserved__::HgiRasterizationState" = type { i32, float, i32, i32, i8, i8, %"class.pxrInternal_v0_24__pxrReserved__::GfVec2f", i8, i64 }
%"class.pxrInternal_v0_24__pxrReserved__::GfVec2f" = type { [2 x float] }

; Function Attrs: mustprogress nounwind uwtable
define linkonce_odr noundef nonnull align 4 dereferenceable(4) ptr @_ZNK32pxrInternal_v0_24__pxrReserved__7GfVec2fixEm(ptr noundef nonnull align 4 dereferenceable(8) %0, i64 noundef %1) #0 comdat align 2 {
  %3 = alloca ptr, align 8
  %4 = alloca i64, align 8
  store ptr %0, ptr %3, align 8
  store i64 %1, ptr %4, align 8
  %5 = load ptr, ptr %3, align 8
  %6 = getelementptr inbounds nuw %"class.pxrInternal_v0_24__pxrReserved__::GfVec2f", ptr %5, i32 0, i32 0
  %7 = load i64, ptr %4, align 8
  %8 = getelementptr inbounds [2 x float], ptr %6, i64 0, i64 %7
  ret ptr %8
}

; Function Attrs: mustprogress uwtable
define linkonce_odr noundef zeroext i1 @_ZNK32pxrInternal_v0_24__pxrReserved__7GfVec2feqERKS0_(ptr noundef nonnull align 4 dereferenceable(8) %0, ptr noundef nonnull align 4 dereferenceable(8) %1) #1 comdat align 2 {
  %3 = alloca ptr, align 8
  %4 = alloca ptr, align 8
  store ptr %0, ptr %3, align 8
  store ptr %1, ptr %4, align 8
  %5 = load ptr, ptr %3, align 8
  %6 = getelementptr inbounds nuw %"class.pxrInternal_v0_24__pxrReserved__::GfVec2f", ptr %5, i32 0, i32 0
  %7 = getelementptr inbounds [2 x float], ptr %6, i64 0, i64 0
  %8 = load float, ptr %7, align 4
  %9 = load ptr, ptr %4, align 8
  %10 = call noundef nonnull align 4 dereferenceable(4) ptr @_ZNK32pxrInternal_v0_24__pxrReserved__7GfVec2fixEm(ptr noundef nonnull align 4 dereferenceable(8) %9, i64 noundef 0)
  %11 = load float, ptr %10, align 4
  %12 = fcmp oeq float %8, %11
  br i1 %12, label %13, label %21

13:                                               ; preds = %2
  %14 = getelementptr inbounds nuw %"class.pxrInternal_v0_24__pxrReserved__::GfVec2f", ptr %5, i32 0, i32 0
  %15 = getelementptr inbounds [2 x float], ptr %14, i64 0, i64 1
  %16 = load float, ptr %15, align 4
  %17 = load ptr, ptr %4, align 8
  %18 = call noundef nonnull align 4 dereferenceable(4) ptr @_ZNK32pxrInternal_v0_24__pxrReserved__7GfVec2fixEm(ptr noundef nonnull align 4 dereferenceable(8) %17, i64 noundef 1)
  %19 = load float, ptr %18, align 4
  %20 = fcmp oeq float %16, %19
  br label %21

21:                                               ; preds = %13, %2
  %22 = phi i1 [ false, %2 ], [ %20, %13 ]
  ret i1 %22
}

; Function Attrs: mustprogress uwtable
define noundef zeroext i1 @_ZN32pxrInternal_v0_24__pxrReserved__eqERKNS_21HgiRasterizationStateES2_(ptr noundef nonnull align 8 dereferenceable(40) %0, ptr noundef nonnull align 8 dereferenceable(40) %1) #1 {
  %3 = alloca ptr, align 8
  %4 = alloca ptr, align 8
  store ptr %0, ptr %3, align 8
  store ptr %1, ptr %4, align 8
  %5 = load ptr, ptr %3, align 8
  %6 = getelementptr inbounds nuw %"struct.pxrInternal_v0_24__pxrReserved__::HgiRasterizationState", ptr %5, i32 0, i32 0
  %7 = load i32, ptr %6, align 8
  %8 = load ptr, ptr %4, align 8
  %9 = getelementptr inbounds nuw %"struct.pxrInternal_v0_24__pxrReserved__::HgiRasterizationState", ptr %8, i32 0, i32 0
  %10 = load i32, ptr %9, align 8
  %11 = icmp eq i32 %7, %10
  br i1 %11, label %12, label %86

12:                                               ; preds = %2
  %13 = load ptr, ptr %3, align 8
  %14 = getelementptr inbounds nuw %"struct.pxrInternal_v0_24__pxrReserved__::HgiRasterizationState", ptr %13, i32 0, i32 1
  %15 = load float, ptr %14, align 4
  %16 = load ptr, ptr %4, align 8
  %17 = getelementptr inbounds nuw %"struct.pxrInternal_v0_24__pxrReserved__::HgiRasterizationState", ptr %16, i32 0, i32 1
  %18 = load float, ptr %17, align 4
  %19 = fcmp oeq float %15, %18
  br i1 %19, label %20, label %86

20:                                               ; preds = %12
  %21 = load ptr, ptr %3, align 8
  %22 = getelementptr inbounds nuw %"struct.pxrInternal_v0_24__pxrReserved__::HgiRasterizationState", ptr %21, i32 0, i32 2
  %23 = load i32, ptr %22, align 8
  %24 = load ptr, ptr %4, align 8
  %25 = getelementptr inbounds nuw %"struct.pxrInternal_v0_24__pxrReserved__::HgiRasterizationState", ptr %24, i32 0, i32 2
  %26 = load i32, ptr %25, align 8
  %27 = icmp eq i32 %23, %26
  br i1 %27, label %28, label %86

28:                                               ; preds = %20
  %29 = load ptr, ptr %3, align 8
  %30 = getelementptr inbounds nuw %"struct.pxrInternal_v0_24__pxrReserved__::HgiRasterizationState", ptr %29, i32 0, i32 3
  %31 = load i32, ptr %30, align 4
  %32 = load ptr, ptr %4, align 8
  %33 = getelementptr inbounds nuw %"struct.pxrInternal_v0_24__pxrReserved__::HgiRasterizationState", ptr %32, i32 0, i32 3
  %34 = load i32, ptr %33, align 4
  %35 = icmp eq i32 %31, %34
  br i1 %35, label %36, label %86

36:                                               ; preds = %28
  %37 = load ptr, ptr %3, align 8
  %38 = getelementptr inbounds nuw %"struct.pxrInternal_v0_24__pxrReserved__::HgiRasterizationState", ptr %37, i32 0, i32 4
  %39 = load i8, ptr %38, align 8
  %40 = trunc i8 %39 to i1
  %41 = zext i1 %40 to i32
  %42 = load ptr, ptr %4, align 8
  %43 = getelementptr inbounds nuw %"struct.pxrInternal_v0_24__pxrReserved__::HgiRasterizationState", ptr %42, i32 0, i32 4
  %44 = load i8, ptr %43, align 8
  %45 = trunc i8 %44 to i1
  %46 = zext i1 %45 to i32
  %47 = icmp eq i32 %41, %46
  br i1 %47, label %48, label %86

48:                                               ; preds = %36
  %49 = load ptr, ptr %3, align 8
  %50 = getelementptr inbounds nuw %"struct.pxrInternal_v0_24__pxrReserved__::HgiRasterizationState", ptr %49, i32 0, i32 5
  %51 = load i8, ptr %50, align 1
  %52 = trunc i8 %51 to i1
  %53 = zext i1 %52 to i32
  %54 = load ptr, ptr %4, align 8
  %55 = getelementptr inbounds nuw %"struct.pxrInternal_v0_24__pxrReserved__::HgiRasterizationState", ptr %54, i32 0, i32 5
  %56 = load i8, ptr %55, align 1
  %57 = trunc i8 %56 to i1
  %58 = zext i1 %57 to i32
  %59 = icmp eq i32 %53, %58
  br i1 %59, label %60, label %86

60:                                               ; preds = %48
  %61 = load ptr, ptr %3, align 8
  %62 = getelementptr inbounds nuw %"struct.pxrInternal_v0_24__pxrReserved__::HgiRasterizationState", ptr %61, i32 0, i32 6
  %63 = load ptr, ptr %4, align 8
  %64 = getelementptr inbounds nuw %"struct.pxrInternal_v0_24__pxrReserved__::HgiRasterizationState", ptr %63, i32 0, i32 6
  %65 = call noundef zeroext i1 @_ZNK32pxrInternal_v0_24__pxrReserved__7GfVec2feqERKS0_(ptr noundef nonnull align 4 dereferenceable(8) %62, ptr noundef nonnull align 4 dereferenceable(8) %64)
  br i1 %65, label %66, label %86

66:                                               ; preds = %60
  %67 = load ptr, ptr %3, align 8
  %68 = getelementptr inbounds nuw %"struct.pxrInternal_v0_24__pxrReserved__::HgiRasterizationState", ptr %67, i32 0, i32 7
  %69 = load i8, ptr %68, align 4
  %70 = trunc i8 %69 to i1
  %71 = zext i1 %70 to i32
  %72 = load ptr, ptr %4, align 8
  %73 = getelementptr inbounds nuw %"struct.pxrInternal_v0_24__pxrReserved__::HgiRasterizationState", ptr %72, i32 0, i32 7
  %74 = load i8, ptr %73, align 4
  %75 = trunc i8 %74 to i1
  %76 = zext i1 %75 to i32
  %77 = icmp eq i32 %71, %76
  br i1 %77, label %78, label %86

78:                                               ; preds = %66
  %79 = load ptr, ptr %3, align 8
  %80 = getelementptr inbounds nuw %"struct.pxrInternal_v0_24__pxrReserved__::HgiRasterizationState", ptr %79, i32 0, i32 8
  %81 = load i64, ptr %80, align 8
  %82 = load ptr, ptr %4, align 8
  %83 = getelementptr inbounds nuw %"struct.pxrInternal_v0_24__pxrReserved__::HgiRasterizationState", ptr %82, i32 0, i32 8
  %84 = load i64, ptr %83, align 8
  %85 = icmp eq i64 %81, %84
  br label %86

86:                                               ; preds = %78, %66, %60, %48, %36, %28, %20, %12, %2
  %87 = phi i1 [ false, %66 ], [ false, %60 ], [ false, %48 ], [ false, %36 ], [ false, %28 ], [ false, %20 ], [ false, %12 ], [ false, %2 ], [ %85, %78 ]
  ret i1 %87
}

; Function Attrs: mustprogress uwtable
define noundef zeroext i1 @_ZN32pxrInternal_v0_24__pxrReserved__neERKNS_21HgiRasterizationStateES2_(ptr noundef nonnull align 8 dereferenceable(40) %0, ptr noundef nonnull align 8 dereferenceable(40) %1) #1 {
  %3 = alloca ptr, align 8
  %4 = alloca ptr, align 8
  store ptr %0, ptr %3, align 8
  store ptr %1, ptr %4, align 8
  %5 = load ptr, ptr %3, align 8
  %6 = load ptr, ptr %4, align 8
  %7 = call noundef zeroext i1 @_ZN32pxrInternal_v0_24__pxrReserved__eqERKNS_21HgiRasterizationStateES2_(ptr noundef nonnull align 8 dereferenceable(40) %5, ptr noundef nonnull align 8 dereferenceable(40) %6)
  %8 = xor i1 %7, true
  ret i1 %8
}